; Function Attrs: mustprogress uwtable
define internal void @_ZNK7rocksdb12experimental12_GLOBAL__N_133CategoryScopeFilterWrapperBuilder9GetStatusEv(ptr dead_on_unwind noalias writable sret(%"class.rocksdb::Status") align 8 %0, ptr noundef nonnull readonly align 8 captures(none) dereferenceable(24) %1) unnamed_addr #4 align 2 {
  %3 = getelementptr inbounds nuw i8, ptr %1, i64 16
  %.val = load ptr, ptr %3, align 8, !tbaa !995
  %4 = load ptr, ptr %.val, align 8, !tbaa !21
  %5 = getelementptr inbounds nuw i8, ptr %4, i64 24
  %6 = load ptr, ptr %5, align 8
  tail call void %6(ptr dead_on_unwind writable sret(%"class.rocksdb::Status") align 8 %0, ptr noundef nonnull align 8 dereferenceable(8) %.val)
  ret void
}